; Function Attrs: nounwind uwtable
define ptr @l_List_foldl___at___private_Lean_Elab_MutualInductive_0__Lean_Elab_Command_isPropCandidate___spec__3(ptr noundef %0, ptr noundef %1) local_unnamed_addr #1 {
  br label %lean_dec.exit16

lean_dec.exit16:                                  ; preds = %lean_dec.exit16.backedge, %2
  %.014 = phi ptr [ %1, %2 ], [ %17, %lean_dec.exit16.backedge ]
  %.0 = phi ptr [ %0, %2 ], [ %.0.be, %lean_dec.exit16.backedge ]
  %3 = ptrtoint ptr %.014 to i64
  %4 = and i64 %3, 1
  %.not.i19 = icmp eq i64 %4, 0
  br i1 %.not.i19, label %8, label %5

5:                                                ; preds = %lean_dec.exit16
  %6 = lshr i64 %3, 1
  %7 = trunc i64 %6 to i32
  br label %lean_obj_tag.exit

8:                                                ; preds = %lean_dec.exit16
  %9 = getelementptr i8, ptr %.014, i64 4
  %.val.i = load i32, ptr %9, align 4
  %10 = lshr i32 %.val.i, 24
  br label %lean_obj_tag.exit

lean_obj_tag.exit:                                ; preds = %5, %8
  %.0.i20 = phi i32 [ %7, %5 ], [ %10, %8 ]
  %11 = icmp eq i32 %.0.i20, 0
  br i1 %11, label %12, label %13

12:                                               ; preds = %lean_obj_tag.exit
  ret ptr %.0

13:                                               ; preds = %lean_obj_tag.exit
  %14 = getelementptr inbounds nuw i8, ptr %.014, i64 8
  %15 = load ptr, ptr %14, align 8, !tbaa !12
  %16 = getelementptr inbounds nuw i8, ptr %.014, i64 16
  %17 = load ptr, ptr %16, align 8, !tbaa !12
  %18 = getelementptr inbounds nuw i8, ptr %15, i64 24
  %19 = load ptr, ptr %18, align 8, !tbaa !12
  %20 = tail call ptr @l_List_lengthTRAux___rarg(ptr noundef %19, ptr noundef nonnull inttoptr (i64 1 to ptr)) #5
  %21 = ptrtoint ptr %.0 to i64
  %22 = and i64 %21, 1
  %.not = icmp eq i64 %22, 0
  br i1 %.not, label %lean_nat_le.exit.thread22, label %23, !prof !18

23:                                               ; preds = %13
  %24 = ptrtoint ptr %20 to i64
  %25 = and i64 %24, 1
  %.not24 = icmp eq i64 %25, 0
  br i1 %.not24, label %lean_nat_le.exit, label %lean_nat_le.exit.thread, !prof !18

lean_nat_le.exit:                                 ; preds = %23
  %26 = tail call zeroext i1 @lean_nat_big_le(ptr noundef %.0, ptr noundef %20) #5
  br i1 %26, label %lean_dec.exit16.backedge, label %.thread

lean_nat_le.exit.thread22:                        ; preds = %13
  %27 = tail call zeroext i1 @lean_nat_big_le(ptr noundef %.0, ptr noundef %20) #5
  br i1 %27, label %36, label %28

lean_nat_le.exit.thread:                          ; preds = %23
  %.not25 = icmp ugt ptr %.0, %20
  %spec.select = select i1 %.not25, ptr %.0, ptr %20
  br label %lean_dec.exit16.backedge

lean_dec.exit16.backedge:                         ; preds = %lean_nat_le.exit.thread, %lean_nat_le.exit, %39, %41, %42, %28, %32, %34, %35
  %.0.be = phi ptr [ %spec.select, %lean_nat_le.exit.thread ], [ %20, %lean_nat_le.exit ], [ %20, %39 ], [ %20, %41 ], [ %20, %42 ], [ %.0, %28 ], [ %.0, %32 ], [ %.0, %34 ], [ %.0, %35 ]
  br label %lean_dec.exit16

28:                                               ; preds = %lean_nat_le.exit.thread22
  %.pre = ptrtoint ptr %20 to i64
  %.pre27 = and i64 %.pre, 1
  %29 = icmp eq i64 %.pre27, 0
  br i1 %29, label %.thread, label %lean_dec.exit16.backedge

.thread:                                          ; preds = %lean_nat_le.exit, %28
  %30 = load i32, ptr %20, align 4, !tbaa !8
  %31 = icmp sgt i32 %30, 1
  br i1 %31, label %32, label %34, !prof !11

32:                                               ; preds = %.thread
  %33 = add nsw i32 %30, -1
  store i32 %33, ptr %20, align 4, !tbaa !8
  br label %lean_dec.exit16.backedge

34:                                               ; preds = %.thread
  %.not.i = icmp eq i32 %30, 0
  br i1 %.not.i, label %lean_dec.exit16.backedge, label %35

35:                                               ; preds = %34
  tail call void @lean_dec_ref_cold(ptr noundef nonnull %20) #5
  br label %lean_dec.exit16.backedge

36:                                               ; preds = %lean_nat_le.exit.thread22
  %37 = load i32, ptr %.0, align 4, !tbaa !8
  %38 = icmp sgt i32 %37, 1
  br i1 %38, label %39, label %41, !prof !11

39:                                               ; preds = %36
  %40 = add nsw i32 %37, -1
  store i32 %40, ptr %.0, align 4, !tbaa !8
  br label %lean_dec.exit16.backedge

41:                                               ; preds = %36
  %.not.i17 = icmp eq i32 %37, 0
  br i1 %.not.i17, label %lean_dec.exit16.backedge, label %42

42:                                               ; preds = %41
  tail call void @lean_dec_ref_cold(ptr noundef nonnull %.0) #5
  br label %lean_dec.exit16.backedge
}